target datalayout = "e-m:e-p270:32:32-p271:32:32-p272:64:64-i64:64-i128:128-f80:128-n8:16:32:64-S128"
target triple = "x86_64-pc-linux-gnu"

@_ZL8gService = internal global ptr null, align 8
@.str = private unnamed_addr constant [3 x i8] c"cf\00", align 1
@.str.1 = private unnamed_addr constant [8 x i8] c"account\00", align 1

; Function Attrs: mustprogress uwtable
define noundef ptr @_ZN6icu_7712NumberFormat12makeInstanceERKNS_6LocaleE18UNumberFormatStyleR10UErrorCode(ptr noundef nonnull align 8 dereferenceable(217) %0, i32 noundef %1, ptr noundef nonnull align 4 dereferenceable(4) %2) #1 align 2 {
  %4 = alloca ptr, align 8
  %5 = alloca i32, align 4
  %6 = alloca ptr, align 8
  store ptr %0, ptr %4, align 8, !tbaa !27
  store i32 %1, ptr %5, align 4, !tbaa !118
  store ptr %2, ptr %6, align 8, !tbaa !22
  %7 = load ptr, ptr %4, align 8, !tbaa !27
  %8 = load i32, ptr %5, align 4, !tbaa !118
  %9 = load ptr, ptr %6, align 8, !tbaa !22
  %10 = call noundef ptr @_ZN6icu_7712NumberFormat12makeInstanceERKNS_6LocaleE18UNumberFormatStyleaR10UErrorCode(ptr noundef nonnull align 8 dereferenceable(217) %7, i32 noundef %8, i8 noundef signext 0, ptr noundef nonnull align 4 dereferenceable(4) %9)
  ret ptr %10
}

; Function Attrs: inlinehint mustprogress nounwind uwtable
define internal noundef signext i8 @_ZL9U_SUCCESS10UErrorCode(i32 noundef %0) #2 {
  %2 = alloca i32, align 4
  store i32 %0, ptr %2, align 4, !tbaa !15
  %3 = load i32, ptr %2, align 4, !tbaa !15
  %4 = icmp sle i32 %3, 0
  %5 = zext i1 %4 to i8
  ret i8 %5
}

; Function Attrs: mustprogress uwtable
define noundef ptr @_ZN6icu_7712NumberFormat22internalCreateInstanceERKNS_6LocaleE18UNumberFormatStyleR10UErrorCode(ptr noundef nonnull align 8 dereferenceable(217) %0, i32 noundef %1, ptr noundef nonnull align 4 dereferenceable(4) %2) #1 align 2 {
  %4 = alloca ptr, align 8
  %5 = alloca ptr, align 8
  %6 = alloca i32, align 4
  %7 = alloca ptr, align 8
  %8 = alloca [32 x i8], align 16
  %9 = alloca i32, align 4
  %10 = alloca i32, align 4
  store ptr %0, ptr %5, align 8, !tbaa !27
  store i32 %1, ptr %6, align 4, !tbaa !118
  store ptr %2, ptr %7, align 8, !tbaa !22
  %11 = load i32, ptr %6, align 4, !tbaa !118
  %12 = icmp eq i32 %11, 2
  br i1 %12, label %13, label %29

13:                                               ; preds = %3
  call void @llvm.lifetime.start.p0(i64 32, ptr %8) #15
  call void @llvm.memset.p0.i64(ptr align 16 %8, i8 0, i64 32, i1 false)
  call void @llvm.lifetime.start.p0(i64 4, ptr %9) #15
  store i32 0, ptr %9, align 4, !tbaa !15
  call void @llvm.lifetime.start.p0(i64 4, ptr %10) #15
  %14 = load ptr, ptr %5, align 8, !tbaa !27
  %15 = getelementptr inbounds [32 x i8], ptr %8, i64 0, i64 0
  %16 = call noundef i32 @_ZNK6icu_776Locale15getKeywordValueEPKcPciR10UErrorCode(ptr noundef nonnull align 8 dereferenceable(217) %14, ptr noundef @.str, ptr noundef %15, i32 noundef 32, ptr noundef nonnull align 4 dereferenceable(4) %9)
  store i32 %16, ptr %10, align 4, !tbaa !14
  %17 = load i32, ptr %9, align 4, !tbaa !15
  %18 = call noundef signext i8 @_ZL9U_SUCCESS10UErrorCode(i32 noundef %17)
  %19 = icmp ne i8 %18, 0
  br i1 %19, label %20, label %28

20:                                               ; preds = %13
  %21 = load i32, ptr %10, align 4, !tbaa !14
  %22 = icmp sgt i32 %21, 0
  br i1 %22, label %23, label %28

23:                                               ; preds = %20
  %24 = getelementptr inbounds [32 x i8], ptr %8, i64 0, i64 0
  %25 = call i32 @strcmp(ptr noundef %24, ptr noundef @.str.1) #11
  %26 = icmp eq i32 %25, 0
  br i1 %26, label %27, label %28

27:                                               ; preds = %23
  store i32 12, ptr %6, align 4, !tbaa !118
  br label %28

28:                                               ; preds = %27, %23, %20, %13
  call void @llvm.lifetime.end.p0(i64 4, ptr %10) #15
  call void @llvm.lifetime.end.p0(i64 4, ptr %9) #15
  call void @llvm.lifetime.end.p0(i64 32, ptr %8) #15
  br label %29

29:                                               ; preds = %28, %3
  %30 = call noundef signext i8 @_ZN6icu_77L11haveServiceEv()
  %31 = icmp ne i8 %30, 0
  br i1 %31, label %32, label %38

32:                                               ; preds = %29
  %33 = load ptr, ptr @_ZL8gService, align 8, !tbaa !139
  %34 = load ptr, ptr %5, align 8, !tbaa !27
  %35 = load i32, ptr %6, align 4, !tbaa !118
  %36 = load ptr, ptr %7, align 8, !tbaa !22
  %37 = call noundef ptr @_ZNK6icu_7716ICULocaleService3getERKNS_6LocaleEiR10UErrorCode(ptr noundef nonnull align 8 dereferenceable(408) %33, ptr noundef nonnull align 8 dereferenceable(217) %34, i32 noundef %35, ptr noundef nonnull align 4 dereferenceable(4) %36)
  store ptr %37, ptr %4, align 8
  br label %43

38:                                               ; preds = %29
  %39 = load ptr, ptr %5, align 8, !tbaa !27
  %40 = load i32, ptr %6, align 4, !tbaa !118
  %41 = load ptr, ptr %7, align 8, !tbaa !22
  %42 = call noundef ptr @_ZN6icu_7712NumberFormat12makeInstanceERKNS_6LocaleE18UNumberFormatStyleR10UErrorCode(ptr noundef nonnull align 8 dereferenceable(217) %39, i32 noundef %40, ptr noundef nonnull align 4 dereferenceable(4) %41)
  store ptr %42, ptr %4, align 8
  br label %43

43:                                               ; preds = %38, %32
  %44 = load ptr, ptr %4, align 8
  ret ptr %44
}