; Function Attrs: mustprogress uwtable
define noundef ptr @_ZN6icu_7712NumberFormat22internalCreateInstanceERKNS_6LocaleE18UNumberFormatStyleR10UErrorCode(ptr noundef nonnull align 8 dereferenceable(217) %0, i32 noundef %1, ptr noundef nonnull align 4 dereferenceable(4) %2) local_unnamed_addr #1 align 2 {
  %4 = alloca [32 x i8], align 16
  %5 = alloca i32, align 4
  %6 = icmp eq i32 %1, 2
  br i1 %6, label %7, label %12

7:                                                ; preds = %3
  call void @llvm.lifetime.start.p0(i64 32, ptr nonnull %4) #22
  call void @llvm.memset.p0.i64(ptr noundef nonnull align 16 dereferenceable(32) %4, i8 0, i64 32, i1 false)
  call void @llvm.lifetime.start.p0(i64 4, ptr nonnull %5) #22
  store i32 0, ptr %5, align 4, !tbaa !13
  %8 = call noundef i32 @_ZNK6icu_776Locale15getKeywordValueEPKcPciR10UErrorCode(ptr noundef nonnull align 8 dereferenceable(217) %0, ptr noundef nonnull @.str, ptr noundef nonnull %4, i32 noundef 32, ptr noundef nonnull align 4 dereferenceable(4) %5)
  %9 = load i32, ptr %5, align 4, !tbaa !13
  %10 = icmp slt i32 %9, 1
  %11 = icmp sgt i32 %8, 0
  %or.cond = and i1 %11, %10
  %lhsv = load i64, ptr %4, align 16
  %.not = icmp eq i64 %lhsv, 32772547957449569
  %or.cond15 = select i1 %or.cond, i1 %.not, i1 false
  %.1 = select i1 %or.cond15, i32 12, i32 2
  call void @llvm.lifetime.end.p0(i64 4, ptr nonnull %5) #22
  call void @llvm.lifetime.end.p0(i64 32, ptr nonnull %4) #22
  br label %12

12:                                               ; preds = %7, %3
  %.010 = phi i32 [ %.1, %7 ], [ %1, %3 ]
  %13 = call fastcc noundef signext i8 @_ZN6icu_77L11haveServiceEv()
  %.not14 = icmp eq i8 %13, 0
  br i1 %.not14, label %17, label %14

14:                                               ; preds = %12
  %15 = load ptr, ptr @_ZL8gService, align 8, !tbaa !66
  %16 = call noundef ptr @_ZNK6icu_7716ICULocaleService3getERKNS_6LocaleEiR10UErrorCode(ptr noundef nonnull align 8 dereferenceable(408) %15, ptr noundef nonnull align 8 dereferenceable(217) %0, i32 noundef %.010, ptr noundef nonnull align 4 dereferenceable(4) %2)
  br label %19

17:                                               ; preds = %12
  %18 = call noundef ptr @_ZN6icu_7712NumberFormat12makeInstanceERKNS_6LocaleE18UNumberFormatStyleaR10UErrorCode(ptr noundef nonnull align 8 dereferenceable(217) %0, i32 noundef %.010, i8 noundef signext 0, ptr noundef nonnull align 4 dereferenceable(4) %2)
  br label %19

19:                                               ; preds = %17, %14
  %.0 = phi ptr [ %16, %14 ], [ %18, %17 ]
  ret ptr %.0
}